target datalayout = "e-m:e-p270:32:32-p271:32:32-p272:64:64-i64:64-i128:128-f80:128-n8:16:32:64-S128"
target triple = "x86_64-unknown-linux-gnu"

%struct.QTailQLink = type { ptr, ptr }
%struct.SCSIDiskReq = type { %struct.SCSIRequest, i64, i32, i32, i8, i8, %struct.iovec, %struct.QEMUIOVector, %struct.BlockAcctCookie }
%struct.SCSIRequest = type { ptr, ptr, ptr, i32, i32, i32, i16, i16, ptr, i64, %struct.SCSICommand, %struct.NotifierList, [252 x i8], i32, i8, i8, i8, i8, ptr, ptr, %union.anon.0 }
%struct.SCSICommand = type { [16 x i8], i32, i64, i64, i32 }
%struct.NotifierList = type { %struct.anon }
%struct.anon = type { ptr }
%union.anon.0 = type { %struct.QTailQLink }
%struct.iovec = type { ptr, i64 }
%struct.QEMUIOVector = type { ptr, i32, %union.anon.1 }
%union.anon.1 = type { %struct.anon.2 }
%struct.anon.2 = type { i32, %struct.iovec }
%struct.BlockAcctCookie = type { i64, i64, i32 }
%struct.anon.3 = type { [12 x i8], i64 }

@.str.5 = private unnamed_addr constant [28 x i8] c"../qemu/hw/scsi/scsi-disk.c\00", align 1
@.str.26 = private unnamed_addr constant [21 x i8] c"r->req.aiocb == NULL\00", align 1
@__PRETTY_FUNCTION__.scsi_read_complete_noio = private unnamed_addr constant [49 x i8] c"void scsi_read_complete_noio(SCSIDiskReq *, int)\00", align 1

; Function Attrs: nounwind sspstrong uwtable
define internal zeroext i1 @scsi_disk_req_check_error(ptr noundef %r, i32 noundef %ret, i1 noundef zeroext %acct_failed) #0 {
entry:
  %retval = alloca i1, align 1
  %r.addr = alloca ptr, align 8
  %ret.addr = alloca i32, align 4
  %acct_failed.addr = alloca i8, align 1
  store ptr %r, ptr %r.addr, align 8
  store i32 %ret, ptr %ret.addr, align 4
  %frombool = zext i1 %acct_failed to i8
  store i8 %frombool, ptr %acct_failed.addr, align 1
  %0 = load ptr, ptr %r.addr, align 8
  %req = getelementptr inbounds %struct.SCSIDiskReq, ptr %0, i32 0, i32 0
  %io_canceled = getelementptr inbounds %struct.SCSIRequest, ptr %req, i32 0, i32 15
  %1 = load i8, ptr %io_canceled, align 1
  %tobool = trunc i8 %1 to i1
  br i1 %tobool, label %if.then, label %if.end

if.then:                                          ; preds = %entry
  %2 = load ptr, ptr %r.addr, align 8
  %req1 = getelementptr inbounds %struct.SCSIDiskReq, ptr %2, i32 0, i32 0
  call void @scsi_req_cancel_complete(ptr noundef %req1)
  store i1 true, ptr %retval, align 1
  br label %return

if.end:                                           ; preds = %entry
  %3 = load i32, ptr %ret.addr, align 4
  %cmp = icmp slt i32 %3, 0
  br i1 %cmp, label %if.then2, label %if.end4

if.then2:                                         ; preds = %if.end
  %4 = load ptr, ptr %r.addr, align 8
  %5 = load i32, ptr %ret.addr, align 4
  %6 = load i8, ptr %acct_failed.addr, align 1
  %tobool3 = trunc i8 %6 to i1
  %call = call zeroext i1 @scsi_handle_rw_error(ptr noundef %4, i32 noundef %5, i1 noundef zeroext %tobool3)
  store i1 %call, ptr %retval, align 1
  br label %return

if.end4:                                          ; preds = %if.end
  store i1 false, ptr %retval, align 1
  br label %return

return:                                           ; preds = %if.end4, %if.then2, %if.then
  %7 = load i1, ptr %retval, align 1
  ret i1 %7
}

; Function Attrs: nounwind sspstrong uwtable
define internal void @scsi_read_complete_noio(ptr noundef %r, i32 noundef %ret) #0 {
entry:
  %r.addr = alloca ptr, align 8
  %ret.addr = alloca i32, align 4
  %n = alloca i32, align 4
  store ptr %r, ptr %r.addr, align 8
  store i32 %ret, ptr %ret.addr, align 4
  %0 = load ptr, ptr %r.addr, align 8
  %req = getelementptr inbounds %struct.SCSIDiskReq, ptr %0, i32 0, i32 0
  %aiocb = getelementptr inbounds %struct.SCSIRequest, ptr %req, i32 0, i32 18
  %1 = load ptr, ptr %aiocb, align 8
  %cmp = icmp eq ptr %1, null
  br i1 %cmp, label %if.then, label %if.else

if.then:                                          ; preds = %entry
  br label %if.end

if.else:                                          ; preds = %entry
  call void @__assert_fail(ptr noundef @.str.26, ptr noundef @.str.5, i32 noundef 378, ptr noundef @__PRETTY_FUNCTION__.scsi_read_complete_noio) #11
  unreachable

if.end:                                           ; preds = %if.then
  %2 = load ptr, ptr %r.addr, align 8
  %3 = load i32, ptr %ret.addr, align 4
  %call = call zeroext i1 @scsi_disk_req_check_error(ptr noundef %2, i32 noundef %3, i1 noundef zeroext false)
  br i1 %call, label %if.then1, label %if.end2

if.then1:                                         ; preds = %if.end
  br label %done

if.end2:                                          ; preds = %if.end
  %4 = load ptr, ptr %r.addr, align 8
  %qiov = getelementptr inbounds %struct.SCSIDiskReq, ptr %4, i32 0, i32 7
  %5 = getelementptr inbounds %struct.QEMUIOVector, ptr %qiov, i32 0, i32 2
  %size = getelementptr inbounds %struct.anon.3, ptr %5, i32 0, i32 1
  %6 = load i64, ptr %size, align 8
  %div = udiv i64 %6, 512
  %conv = trunc i64 %div to i32
  store i32 %conv, ptr %n, align 4
  %7 = load i32, ptr %n, align 4
  %conv3 = zext i32 %7 to i64
  %8 = load ptr, ptr %r.addr, align 8
  %sector = getelementptr inbounds %struct.SCSIDiskReq, ptr %8, i32 0, i32 1
  %9 = load i64, ptr %sector, align 8
  %add = add i64 %9, %conv3
  store i64 %add, ptr %sector, align 8
  %10 = load i32, ptr %n, align 4
  %11 = load ptr, ptr %r.addr, align 8
  %sector_count = getelementptr inbounds %struct.SCSIDiskReq, ptr %11, i32 0, i32 2
  %12 = load i32, ptr %sector_count, align 8
  %sub = sub i32 %12, %10
  store i32 %sub, ptr %sector_count, align 8
  %13 = load ptr, ptr %r.addr, align 8
  %req4 = getelementptr inbounds %struct.SCSIDiskReq, ptr %13, i32 0, i32 0
  %14 = load ptr, ptr %r.addr, align 8
  %qiov5 = getelementptr inbounds %struct.SCSIDiskReq, ptr %14, i32 0, i32 7
  %15 = getelementptr inbounds %struct.QEMUIOVector, ptr %qiov5, i32 0, i32 2
  %size6 = getelementptr inbounds %struct.anon.3, ptr %15, i32 0, i32 1
  %16 = load i64, ptr %size6, align 8
  %conv7 = trunc i64 %16 to i32
  call void @scsi_req_data(ptr noundef %req4, i32 noundef %conv7)
  br label %done

done:                                             ; preds = %if.end2, %if.then1
  %17 = load ptr, ptr %r.addr, align 8
  %req8 = getelementptr inbounds %struct.SCSIDiskReq, ptr %17, i32 0, i32 0
  call void @scsi_req_unref(ptr noundef %req8)
  ret void
}