; Function Attrs: nounwind sspstrong uwtable
define internal fastcc void @scsi_read_complete_noio(ptr noundef %r, i32 noundef %ret) unnamed_addr #0 {
entry:
  %aiocb = getelementptr inbounds nuw i8, ptr %r, i64 376
  %0 = load ptr, ptr %aiocb, align 8
  %cmp = icmp eq ptr %0, null
  br i1 %cmp, label %if.end, label %if.else

if.else:                                          ; preds = %entry
  tail call void @__assert_fail(ptr noundef nonnull @.str.26, ptr noundef nonnull @.str.5, i32 noundef 378, ptr noundef nonnull @__PRETTY_FUNCTION__.scsi_read_complete_noio) #19
  unreachable

if.end:                                           ; preds = %entry
  %io_canceled.i = getelementptr inbounds nuw i8, ptr %r, i64 369
  %1 = load i8, ptr %io_canceled.i, align 1
  %tobool.i = trunc i8 %1 to i1
  br i1 %tobool.i, label %scsi_disk_req_check_error.exit.thread, label %if.end.i

scsi_disk_req_check_error.exit.thread:            ; preds = %if.end
  tail call void @scsi_req_cancel_complete(ptr noundef nonnull %r) #18
  br label %done

if.end.i:                                         ; preds = %if.end
  %cmp.i = icmp slt i32 %ret, 0
  br i1 %cmp.i, label %scsi_disk_req_check_error.exit, label %if.end2

scsi_disk_req_check_error.exit:                   ; preds = %if.end.i
  %call.i = tail call fastcc zeroext i1 @scsi_handle_rw_error(ptr noundef nonnull %r, i32 noundef %ret, i1 noundef zeroext false)
  br i1 %call.i, label %done, label %if.end2

if.end2:                                          ; preds = %if.end.i, %scsi_disk_req_check_error.exit
  %size = getelementptr inbounds nuw i8, ptr %r, i64 480
  %2 = load i64, ptr %size, align 8
  %div9 = lshr i64 %2, 9
  %conv = trunc i64 %div9 to i32
  %conv3 = and i64 %div9, 4294967295
  %sector = getelementptr inbounds nuw i8, ptr %r, i64 408
  %3 = load i64, ptr %sector, align 8
  %add = add i64 %conv3, %3
  store i64 %add, ptr %sector, align 8
  %sector_count = getelementptr inbounds nuw i8, ptr %r, i64 416
  %4 = load i32, ptr %sector_count, align 8
  %sub = sub i32 %4, %conv
  store i32 %sub, ptr %sector_count, align 8
  %conv7 = trunc i64 %2 to i32
  tail call void @scsi_req_data(ptr noundef nonnull %r, i32 noundef %conv7) #18
  br label %done

done:                                             ; preds = %scsi_disk_req_check_error.exit.thread, %scsi_disk_req_check_error.exit, %if.end2
  tail call void @scsi_req_unref(ptr noundef nonnull %r) #18
  ret void
}